target datalayout = "e-m:e-p270:32:32-p271:32:32-p272:64:64-i64:64-i128:128-f80:128-n8:16:32:64-S128"
target triple = "x86_64-unknown-linux-gnu"

%"class.std::__shared_count" = type { ptr }
%"class.std::shared_ptr.71" = type { %"class.std::__shared_ptr.72" }
%"class.std::__shared_ptr.72" = type { ptr, %"class.std::__shared_count" }

; Function Attrs: mustprogress uwtable
define linkonce_odr void @_ZN7openvdb5v11_02io4File4Impl8readGridINS0_4math9CoordBBoxEEESt10shared_ptrINS0_8GridBaseEERKS2_RKNS1_14GridDescriptorERKT_(ptr noalias sret(%"class.std::shared_ptr.71") align 8 %agg.result, ptr noundef nonnull align 8 dereferenceable(80) %file, ptr noundef nonnull align 8 dereferenceable(160) %gd, ptr noundef nonnull align 4 dereferenceable(24) %bbox) #4 comdat align 2 personality ptr @__gxx_personality_v0 {
entry:
  %result.ptr = alloca ptr, align 8
  %file.addr = alloca ptr, align 8
  %gd.addr = alloca ptr, align 8
  %bbox.addr = alloca ptr, align 8
  %nrvo = alloca i1, align 1
  %exn.slot = alloca ptr, align 8
  %ehselector.slot = alloca i32, align 4
  store ptr %agg.result, ptr %result.ptr, align 8
  store ptr %file, ptr %file.addr, align 8
  store ptr %gd, ptr %gd.addr, align 8
  store ptr %bbox, ptr %bbox.addr, align 8
  store i1 false, ptr %nrvo, align 1
  %0 = load ptr, ptr %file.addr, align 8
  %1 = load ptr, ptr %gd.addr, align 8
  call void @_ZNK7openvdb5v11_02io4File10createGridERKNS1_14GridDescriptorE(ptr sret(%"class.std::shared_ptr.71") align 8 %agg.result, ptr noundef nonnull align 8 dereferenceable(80) %0, ptr noundef nonnull align 8 dereferenceable(160) %1)
  %2 = load ptr, ptr %gd.addr, align 8
  %3 = load ptr, ptr %file.addr, align 8
  %call = invoke noundef nonnull align 8 dereferenceable(16) ptr @_ZNK7openvdb5v11_02io4File11inputStreamEv(ptr noundef nonnull align 8 dereferenceable(80) %3)
          to label %invoke.cont unwind label %lpad

invoke.cont:                                      ; preds = %entry
  invoke void @_ZNK7openvdb5v11_02io14GridDescriptor10seekToGridERSi(ptr noundef nonnull align 8 dereferenceable(160) %2, ptr noundef nonnull align 8 dereferenceable(16) %call)
          to label %invoke.cont1 unwind label %lpad

invoke.cont1:                                     ; preds = %invoke.cont
  %4 = load ptr, ptr %file.addr, align 8
  %5 = load ptr, ptr %gd.addr, align 8
  %6 = load ptr, ptr %bbox.addr, align 8
  invoke void @_ZN7openvdb5v11_02io4File4Impl9unarchiveERKS2_RSt10shared_ptrINS0_8GridBaseEERKNS1_14GridDescriptorERKNS0_4math9CoordBBoxE(ptr noundef nonnull align 8 dereferenceable(80) %4, ptr noundef nonnull align 8 dereferenceable(16) %agg.result, ptr noundef nonnull align 8 dereferenceable(160) %5, ptr noundef nonnull align 4 dereferenceable(24) %6)
          to label %invoke.cont2 unwind label %lpad

invoke.cont2:                                     ; preds = %invoke.cont1
  store i1 true, ptr %nrvo, align 1
  %nrvo.val = load i1, ptr %nrvo, align 1
  br i1 %nrvo.val, label %nrvo.skipdtor, label %nrvo.unused

lpad:                                             ; preds = %invoke.cont1, %invoke.cont, %entry
  %7 = landingpad { ptr, i32 }
          cleanup
  %8 = extractvalue { ptr, i32 } %7, 0
  store ptr %8, ptr %exn.slot, align 8
  %9 = extractvalue { ptr, i32 } %7, 1
  store i32 %9, ptr %ehselector.slot, align 4
  call void @_ZNSt10shared_ptrIN7openvdb5v11_08GridBaseEED2Ev(ptr noundef nonnull align 8 dereferenceable(16) %agg.result) #3
  br label %eh.resume

nrvo.unused:                                      ; preds = %invoke.cont2
  call void @_ZNSt10shared_ptrIN7openvdb5v11_08GridBaseEED2Ev(ptr noundef nonnull align 8 dereferenceable(16) %agg.result) #3
  br label %nrvo.skipdtor

nrvo.skipdtor:                                    ; preds = %nrvo.unused, %invoke.cont2
  ret void

eh.resume:                                        ; preds = %lpad
  %exn = load ptr, ptr %exn.slot, align 8
  %sel = load i32, ptr %ehselector.slot, align 4
  %lpad.val = insertvalue { ptr, i32 } poison, ptr %exn, 0
  %lpad.val3 = insertvalue { ptr, i32 } %lpad.val, i32 %sel, 1
  resume { ptr, i32 } %lpad.val3
}

; Function Attrs: mustprogress uwtable
define void @_ZNK7openvdb5v11_02io4File8readGridERKNS1_14GridDescriptorERKNS0_4math9CoordBBoxE(ptr noalias sret(%"class.std::shared_ptr.71") align 8 %agg.result, ptr noundef nonnull align 8 dereferenceable(80) %this, ptr noundef nonnull align 8 dereferenceable(160) %gd, ptr noundef nonnull align 4 dereferenceable(24) %bbox) #4 align 2 {
entry:
  %result.ptr = alloca ptr, align 8
  %this.addr = alloca ptr, align 8
  %gd.addr = alloca ptr, align 8
  %bbox.addr = alloca ptr, align 8
  store ptr %agg.result, ptr %result.ptr, align 8
  store ptr %this, ptr %this.addr, align 8
  store ptr %gd, ptr %gd.addr, align 8
  store ptr %bbox, ptr %bbox.addr, align 8
  %this1 = load ptr, ptr %this.addr, align 8
  %0 = load ptr, ptr %gd.addr, align 8
  %1 = load ptr, ptr %bbox.addr, align 8
  call void @_ZN7openvdb5v11_02io4File4Impl8readGridINS0_4math9CoordBBoxEEESt10shared_ptrINS0_8GridBaseEERKS2_RKNS1_14GridDescriptorERKT_(ptr sret(%"class.std::shared_ptr.71") align 8 %agg.result, ptr noundef nonnull align 8 dereferenceable(80) %this1, ptr noundef nonnull align 8 dereferenceable(160) %0, ptr noundef nonnull align 4 dereferenceable(24) %1)
  ret void
}